target datalayout = "e-m:e-p270:32:32-p271:32:32-p272:64:64-i64:64-i128:128-f80:128-n8:16:32:64-S128"
target triple = "x86_64-pc-linux-gnu"

%struct.jpeg_error_mgr = type { ptr, ptr, ptr, ptr, ptr, i32, %union.anon, i32, i64, ptr, i32, ptr, i32, i32 }
%union.anon = type { [8 x i32], [48 x i8] }
%struct.jpeg_common_struct = type { ptr, ptr, ptr, ptr, i32, i32 }

; Function Attrs: nounwind uwtable
define internal void @format_message(ptr noundef %0, ptr noundef %1) #0 {
  %3 = alloca ptr, align 8
  %4 = alloca ptr, align 8
  %5 = alloca ptr, align 8
  %6 = alloca i32, align 4
  %7 = alloca ptr, align 8
  %8 = alloca ptr, align 8
  %9 = alloca i8, align 1
  %10 = alloca i32, align 4
  store ptr %0, ptr %3, align 8
  store ptr %1, ptr %4, align 8
  %11 = load ptr, ptr %3, align 8
  %12 = getelementptr inbounds %struct.jpeg_common_struct, ptr %11, i32 0, i32 0
  %13 = load ptr, ptr %12, align 8
  store ptr %13, ptr %5, align 8
  %14 = load ptr, ptr %5, align 8
  %15 = getelementptr inbounds %struct.jpeg_error_mgr, ptr %14, i32 0, i32 5
  %16 = load i32, ptr %15, align 8
  store i32 %16, ptr %6, align 4
  store ptr null, ptr %7, align 8
  %17 = load i32, ptr %6, align 4
  %18 = icmp sgt i32 %17, 0
  br i1 %18, label %19, label %33

19:                                               ; preds = %2
  %20 = load i32, ptr %6, align 4
  %21 = load ptr, ptr %5, align 8
  %22 = getelementptr inbounds %struct.jpeg_error_mgr, ptr %21, i32 0, i32 10
  %23 = load i32, ptr %22, align 8
  %24 = icmp sle i32 %20, %23
  br i1 %24, label %25, label %33

25:                                               ; preds = %19
  %26 = load ptr, ptr %5, align 8
  %27 = getelementptr inbounds %struct.jpeg_error_mgr, ptr %26, i32 0, i32 9
  %28 = load ptr, ptr %27, align 8
  %29 = load i32, ptr %6, align 4
  %30 = sext i32 %29 to i64
  %31 = getelementptr inbounds ptr, ptr %28, i64 %30
  %32 = load ptr, ptr %31, align 8
  store ptr %32, ptr %7, align 8
  br label %63

33:                                               ; preds = %19, %2
  %34 = load ptr, ptr %5, align 8
  %35 = getelementptr inbounds %struct.jpeg_error_mgr, ptr %34, i32 0, i32 11
  %36 = load ptr, ptr %35, align 8
  %37 = icmp ne ptr %36, null
  br i1 %37, label %38, label %62

38:                                               ; preds = %33
  %39 = load i32, ptr %6, align 4
  %40 = load ptr, ptr %5, align 8
  %41 = getelementptr inbounds %struct.jpeg_error_mgr, ptr %40, i32 0, i32 12
  %42 = load i32, ptr %41, align 8
  %43 = icmp sge i32 %39, %42
  br i1 %43, label %44, label %62

44:                                               ; preds = %38
  %45 = load i32, ptr %6, align 4
  %46 = load ptr, ptr %5, align 8
  %47 = getelementptr inbounds %struct.jpeg_error_mgr, ptr %46, i32 0, i32 13
  %48 = load i32, ptr %47, align 4
  %49 = icmp sle i32 %45, %48
  br i1 %49, label %50, label %62

50:                                               ; preds = %44
  %51 = load ptr, ptr %5, align 8
  %52 = getelementptr inbounds %struct.jpeg_error_mgr, ptr %51, i32 0, i32 11
  %53 = load ptr, ptr %52, align 8
  %54 = load i32, ptr %6, align 4
  %55 = load ptr, ptr %5, align 8
  %56 = getelementptr inbounds %struct.jpeg_error_mgr, ptr %55, i32 0, i32 12
  %57 = load i32, ptr %56, align 8
  %58 = sub nsw i32 %54, %57
  %59 = sext i32 %58 to i64
  %60 = getelementptr inbounds ptr, ptr %53, i64 %59
  %61 = load ptr, ptr %60, align 8
  store ptr %61, ptr %7, align 8
  br label %62

62:                                               ; preds = %50, %44, %38, %33
  br label %63

63:                                               ; preds = %62, %25
  %64 = load ptr, ptr %7, align 8
  %65 = icmp eq ptr %64, null
  br i1 %65, label %66, label %76

66:                                               ; preds = %63
  %67 = load i32, ptr %6, align 4
  %68 = load ptr, ptr %5, align 8
  %69 = getelementptr inbounds %struct.jpeg_error_mgr, ptr %68, i32 0, i32 6
  %70 = getelementptr inbounds [8 x i32], ptr %69, i64 0, i64 0
  store i32 %67, ptr %70, align 4
  %71 = load ptr, ptr %5, align 8
  %72 = getelementptr inbounds %struct.jpeg_error_mgr, ptr %71, i32 0, i32 9
  %73 = load ptr, ptr %72, align 8
  %74 = getelementptr inbounds ptr, ptr %73, i64 0
  %75 = load ptr, ptr %74, align 8
  store ptr %75, ptr %7, align 8
  br label %76

76:                                               ; preds = %66, %63
  store i32 0, ptr %10, align 4
  %77 = load ptr, ptr %7, align 8
  store ptr %77, ptr %8, align 8
  br label %78

78:                                               ; preds = %95, %76
  %79 = load ptr, ptr %8, align 8
  %80 = getelementptr inbounds i8, ptr %79, i32 1
  store ptr %80, ptr %8, align 8
  %81 = load i8, ptr %79, align 1
  store i8 %81, ptr %9, align 1
  %82 = sext i8 %81 to i32
  %83 = icmp ne i32 %82, 0
  br i1 %83, label %84, label %96

84:                                               ; preds = %78
  %85 = load i8, ptr %9, align 1
  %86 = sext i8 %85 to i32
  %87 = icmp eq i32 %86, 37
  br i1 %87, label %88, label %95

88:                                               ; preds = %84
  %89 = load ptr, ptr %8, align 8
  %90 = load i8, ptr %89, align 1
  %91 = sext i8 %90 to i32
  %92 = icmp eq i32 %91, 115
  br i1 %92, label %93, label %94

93:                                               ; preds = %88
  store i32 1, ptr %10, align 4
  br label %94

94:                                               ; preds = %93, %88
  br label %96

95:                                               ; preds = %84
  br label %78, !llvm.loop !4

96:                                               ; preds = %94, %78
  %97 = load i32, ptr %10, align 4
  %98 = icmp ne i32 %97, 0
  br i1 %98, label %99, label %106

99:                                               ; preds = %96
  %100 = load ptr, ptr %4, align 8
  %101 = load ptr, ptr %7, align 8
  %102 = load ptr, ptr %5, align 8
  %103 = getelementptr inbounds %struct.jpeg_error_mgr, ptr %102, i32 0, i32 6
  %104 = getelementptr inbounds [80 x i8], ptr %103, i64 0, i64 0
  %105 = call i32 (ptr, i64, ptr, ...) @snprintf(ptr noundef %100, i64 noundef 200, ptr noundef %101, ptr noundef %104) #6
  br label %142

106:                                              ; preds = %96
  %107 = load ptr, ptr %4, align 8
  %108 = load ptr, ptr %7, align 8
  %109 = load ptr, ptr %5, align 8
  %110 = getelementptr inbounds %struct.jpeg_error_mgr, ptr %109, i32 0, i32 6
  %111 = getelementptr inbounds [8 x i32], ptr %110, i64 0, i64 0
  %112 = load i32, ptr %111, align 4
  %113 = load ptr, ptr %5, align 8
  %114 = getelementptr inbounds %struct.jpeg_error_mgr, ptr %113, i32 0, i32 6
  %115 = getelementptr inbounds [8 x i32], ptr %114, i64 0, i64 1
  %116 = load i32, ptr %115, align 4
  %117 = load ptr, ptr %5, align 8
  %118 = getelementptr inbounds %struct.jpeg_error_mgr, ptr %117, i32 0, i32 6
  %119 = getelementptr inbounds [8 x i32], ptr %118, i64 0, i64 2
  %120 = load i32, ptr %119, align 4
  %121 = load ptr, ptr %5, align 8
  %122 = getelementptr inbounds %struct.jpeg_error_mgr, ptr %121, i32 0, i32 6
  %123 = getelementptr inbounds [8 x i32], ptr %122, i64 0, i64 3
  %124 = load i32, ptr %123, align 4
  %125 = load ptr, ptr %5, align 8
  %126 = getelementptr inbounds %struct.jpeg_error_mgr, ptr %125, i32 0, i32 6
  %127 = getelementptr inbounds [8 x i32], ptr %126, i64 0, i64 4
  %128 = load i32, ptr %127, align 4
  %129 = load ptr, ptr %5, align 8
  %130 = getelementptr inbounds %struct.jpeg_error_mgr, ptr %129, i32 0, i32 6
  %131 = getelementptr inbounds [8 x i32], ptr %130, i64 0, i64 5
  %132 = load i32, ptr %131, align 4
  %133 = load ptr, ptr %5, align 8
  %134 = getelementptr inbounds %struct.jpeg_error_mgr, ptr %133, i32 0, i32 6
  %135 = getelementptr inbounds [8 x i32], ptr %134, i64 0, i64 6
  %136 = load i32, ptr %135, align 4
  %137 = load ptr, ptr %5, align 8
  %138 = getelementptr inbounds %struct.jpeg_error_mgr, ptr %137, i32 0, i32 6
  %139 = getelementptr inbounds [8 x i32], ptr %138, i64 0, i64 7
  %140 = load i32, ptr %139, align 4
  %141 = call i32 (ptr, i64, ptr, ...) @snprintf(ptr noundef %107, i64 noundef 200, ptr noundef %108, i32 noundef %112, i32 noundef %116, i32 noundef %120, i32 noundef %124, i32 noundef %128, i32 noundef %132, i32 noundef %136, i32 noundef %140) #6
  br label %142

142:                                              ; preds = %106, %99
  ret void
}