; Function Attrs: nofree nounwind uwtable
define internal void @format_message(ptr nocapture noundef readonly %0, ptr nocapture noundef writeonly %1) #4 {
  %3 = load ptr, ptr %0, align 8
  %4 = getelementptr inbounds i8, ptr %3, i64 40
  %5 = load i32, ptr %4, align 8
  %6 = icmp sgt i32 %5, 0
  br i1 %6, label %7, label %15

7:                                                ; preds = %2
  %8 = getelementptr inbounds i8, ptr %3, i64 144
  %9 = load i32, ptr %8, align 8
  %.not = icmp sgt i32 %5, %9
  br i1 %.not, label %15, label %10

10:                                               ; preds = %7
  %11 = getelementptr inbounds i8, ptr %3, i64 136
  %12 = load ptr, ptr %11, align 8
  %13 = zext nneg i32 %5 to i64
  %14 = getelementptr inbounds ptr, ptr %12, i64 %13
  br label %28

15:                                               ; preds = %7, %2
  %16 = getelementptr inbounds i8, ptr %3, i64 152
  %17 = load ptr, ptr %16, align 8
  %.not42 = icmp eq ptr %17, null
  br i1 %.not42, label %.thread, label %18

18:                                               ; preds = %15
  %19 = getelementptr inbounds i8, ptr %3, i64 160
  %20 = load i32, ptr %19, align 8
  %.not43 = icmp slt i32 %5, %20
  br i1 %.not43, label %.thread, label %21

21:                                               ; preds = %18
  %22 = getelementptr inbounds i8, ptr %3, i64 164
  %23 = load i32, ptr %22, align 4
  %.not44 = icmp sgt i32 %5, %23
  br i1 %.not44, label %.thread, label %24

24:                                               ; preds = %21
  %25 = sub nsw i32 %5, %20
  %26 = sext i32 %25 to i64
  %27 = getelementptr inbounds ptr, ptr %17, i64 %26
  br label %28

28:                                               ; preds = %24, %10
  %.036.in = phi ptr [ %14, %10 ], [ %27, %24 ]
  %.036 = load ptr, ptr %.036.in, align 8
  %29 = icmp eq ptr %.036, null
  br i1 %29, label %.thread, label %34

.thread:                                          ; preds = %15, %18, %21, %28
  %30 = getelementptr inbounds i8, ptr %3, i64 44
  store i32 %5, ptr %30, align 4
  %31 = getelementptr inbounds i8, ptr %3, i64 136
  %32 = load ptr, ptr %31, align 8
  %33 = load ptr, ptr %32, align 8
  br label %34

34:                                               ; preds = %.thread, %28
  %.1 = phi ptr [ %33, %.thread ], [ %.036, %28 ]
  br label %35

35:                                               ; preds = %35, %34
  %.037 = phi ptr [ %.1, %34 ], [ %36, %35 ]
  %36 = getelementptr inbounds i8, ptr %.037, i64 1
  %37 = load i8, ptr %.037, align 1
  switch i8 %37, label %35 [
    i8 0, label %.critedge
    i8 37, label %38
  ]

38:                                               ; preds = %35
  %39 = load i8, ptr %36, align 1
  %.not48 = icmp eq i8 %39, 115
  br i1 %.not48, label %40, label %.critedge

40:                                               ; preds = %38
  %41 = getelementptr inbounds i8, ptr %3, i64 44
  %42 = tail call i32 (ptr, i64, ptr, ...) @snprintf(ptr noundef nonnull dereferenceable(1) %1, i64 noundef 200, ptr noundef %.1, ptr noundef nonnull %41) #9
  br label %60

.critedge:                                        ; preds = %35, %38
  %43 = getelementptr inbounds i8, ptr %3, i64 44
  %44 = load i32, ptr %43, align 4
  %45 = getelementptr inbounds i8, ptr %3, i64 48
  %46 = load i32, ptr %45, align 4
  %47 = getelementptr inbounds i8, ptr %3, i64 52
  %48 = load i32, ptr %47, align 4
  %49 = getelementptr inbounds i8, ptr %3, i64 56
  %50 = load i32, ptr %49, align 4
  %51 = getelementptr inbounds i8, ptr %3, i64 60
  %52 = load i32, ptr %51, align 4
  %53 = getelementptr inbounds i8, ptr %3, i64 64
  %54 = load i32, ptr %53, align 4
  %55 = getelementptr inbounds i8, ptr %3, i64 68
  %56 = load i32, ptr %55, align 4
  %57 = getelementptr inbounds i8, ptr %3, i64 72
  %58 = load i32, ptr %57, align 4
  %59 = tail call i32 (ptr, i64, ptr, ...) @snprintf(ptr noundef nonnull dereferenceable(1) %1, i64 noundef 200, ptr noundef %.1, i32 noundef %44, i32 noundef %46, i32 noundef %48, i32 noundef %50, i32 noundef %52, i32 noundef %54, i32 noundef %56, i32 noundef %58) #9
  br label %60

60:                                               ; preds = %.critedge, %40
  ret void
}